; Function Attrs: mustprogress uwtable
define noundef signext i8 @_ZN16IcuTestErrorCode19expectErrorAndResetE10UErrorCode(ptr noundef nonnull align 8 dereferenceable(96) %this, i32 noundef %expectedError) local_unnamed_addr #1 align 2 personality ptr @__gxx_personality_v0 {
entry:
  %ref.tmp = alloca %"class.icu_75::UnicodeString", align 8
  %ref.tmp2 = alloca %"class.icu_75::UnicodeString", align 8
  %ref.tmp3 = alloca %"class.icu_75::UnicodeString", align 8
  %errorCode.i = getelementptr inbounds i8, ptr %this, i64 8
  %0 = load i32, ptr %errorCode.i, align 8
  %cmp.not = icmp eq i32 %0, %expectedError
  br i1 %cmp.not, label %if.end, label %if.then

if.then:                                          ; preds = %entry
  call void @_ZN6icu_7513UnicodeStringC1EPKDs(ptr noundef nonnull align 8 dereferenceable(64) %ref.tmp2, ptr noundef nonnull @.str.3)
  %call4 = invoke ptr @u_errorName_75(i32 noundef %expectedError)
          to label %invoke.cont unwind label %lpad

invoke.cont:                                      ; preds = %if.then
  invoke void @_ZN6icu_7513UnicodeStringC1EPKc(ptr noundef nonnull align 8 dereferenceable(64) %ref.tmp3, ptr noundef %call4)
          to label %invoke.cont5 unwind label %lpad

invoke.cont5:                                     ; preds = %invoke.cont
  invoke void @_ZN6icu_75plERKNS_13UnicodeStringES2_(ptr nonnull sret(%"class.icu_75::UnicodeString") align 8 %ref.tmp, ptr noundef nonnull align 8 dereferenceable(64) %ref.tmp2, ptr noundef nonnull align 8 dereferenceable(64) %ref.tmp3)
          to label %invoke.cont7 unwind label %lpad6

invoke.cont7:                                     ; preds = %invoke.cont5
  invoke void @_ZNK16IcuTestErrorCode6errlogEaRKN6icu_7513UnicodeStringEPKc(ptr noundef nonnull align 8 dereferenceable(96) %this, i8 noundef signext 0, ptr noundef nonnull align 8 dereferenceable(64) %ref.tmp, ptr noundef null)
          to label %invoke.cont9 unwind label %lpad8

invoke.cont9:                                     ; preds = %invoke.cont7
  call void @_ZN6icu_7513UnicodeStringD1Ev(ptr noundef nonnull align 8 dereferenceable(64) %ref.tmp) #20
  call void @_ZN6icu_7513UnicodeStringD1Ev(ptr noundef nonnull align 8 dereferenceable(64) %ref.tmp3) #20
  call void @_ZN6icu_7513UnicodeStringD1Ev(ptr noundef nonnull align 8 dereferenceable(64) %ref.tmp2) #20
  %.pre = load i32, ptr %errorCode.i, align 8
  br label %if.end

lpad:                                             ; preds = %invoke.cont, %if.then
  %1 = landingpad { ptr, i32 }
          cleanup
  br label %ehcleanup10

lpad6:                                            ; preds = %invoke.cont5
  %2 = landingpad { ptr, i32 }
          cleanup
  br label %ehcleanup

lpad8:                                            ; preds = %invoke.cont7
  %3 = landingpad { ptr, i32 }
          cleanup
  call void @_ZN6icu_7513UnicodeStringD1Ev(ptr noundef nonnull align 8 dereferenceable(64) %ref.tmp) #20
  br label %ehcleanup

ehcleanup:                                        ; preds = %lpad8, %lpad6
  %.pn = phi { ptr, i32 } [ %3, %lpad8 ], [ %2, %lpad6 ]
  call void @_ZN6icu_7513UnicodeStringD1Ev(ptr noundef nonnull align 8 dereferenceable(64) %ref.tmp3) #20
  br label %ehcleanup10

ehcleanup10:                                      ; preds = %ehcleanup, %lpad
  %.pn.pn = phi { ptr, i32 } [ %.pn, %ehcleanup ], [ %1, %lpad ]
  call void @_ZN6icu_7513UnicodeStringD1Ev(ptr noundef nonnull align 8 dereferenceable(64) %ref.tmp2) #20
  resume { ptr, i32 } %.pn.pn

if.end:                                           ; preds = %invoke.cont9, %entry
  %4 = phi i32 [ %.pre, %invoke.cont9 ], [ %expectedError, %entry ]
  %cmp.i.i = icmp sgt i32 %4, 0
  %conv.i.i = zext i1 %cmp.i.i to i8
  %call13 = call noundef i32 @_ZN6icu_759ErrorCode5resetEv(ptr noundef nonnull align 8 dereferenceable(12) %this)
  ret i8 %conv.i.i
}